target datalayout = "e-m:e-p270:32:32-p271:32:32-p272:64:64-i64:64-i128:128-f80:128-n8:16:32:64-S128"
target triple = "x86_64-pc-linux-gnu"

%struct.H5O_layout_chunk_t = type { i32, i8, i32, [33 x i32], i32, i32, i64, i64, [33 x i64], [33 x i64], [33 x i64], [33 x i64], %union.anon.0 }
%union.anon.0 = type { %struct.H5O_layout_chunk_earray_t }
%struct.H5O_layout_chunk_earray_t = type { %struct.anon.1, i32, [33 x i32], [33 x i64], [33 x i64] }
%struct.anon.1 = type { i8, i8, i8, i8, i8 }
%struct.H5D_earray_ctx_ud_t = type { ptr, i32 }
%struct.H5O_loc_t = type { ptr, i64, i8 }
%struct.H5O_layout_t = type { i32, i32, ptr, %union.anon, %struct.H5O_storage_t }
%union.anon = type { %struct.H5O_layout_chunk_t }
%struct.H5O_storage_t = type { i32, %union.anon.3 }
%union.anon.3 = type { %struct.H5O_storage_virtual_t }
%struct.H5O_storage_virtual_t = type { %struct.H5HG_t, i64, ptr, i64, [32 x i64], i32, i64, i64, i64, i8 }
%struct.H5HG_t = type { i64, i64 }

@H5D_init_g = external global i8, align 1
@H5_libterm_g = external global i8, align 1
@.str.2 = private unnamed_addr constant [103 x i8] c"generated/home/dtcxzyw/WorkSpace/Projects/compilers/llvm-opt-benchmark/bench/hdf5/hdf5/src/H5Dearray.c\00", align 1
@H5E_DATASET_g = external global i64, align 8
@H5E_CANTALLOC_g = external global i64, align 8
@.str.3 = private unnamed_addr constant [56 x i8] c"can't allocate extensible array client callback context\00", align 1
@__func__.H5D__earray_crt_dbg_context = private unnamed_addr constant [28 x i8] c"H5D__earray_crt_dbg_context\00", align 1
@H5E_CANTOPENOBJ_g = external global i64, align 8
@.str.10 = private unnamed_addr constant [25 x i8] c"can't open object header\00", align 1
@H5E_CANTGET_g = external global i64, align 8
@.str.11 = private unnamed_addr constant [22 x i8] c"can't get layout info\00", align 1
@H5E_CANTCLOSEOBJ_g = external global i64, align 8
@.str.12 = private unnamed_addr constant [26 x i8] c"can't close object header\00", align 1
@H5_H5D_earray_ctx_ud_t_reg_free_list = internal global { i8, [3 x i8], i32, i32, [4 x i8], ptr, i64, ptr } { i8 0, [3 x i8] zeroinitializer, i32 0, i32 0, [4 x i8] zeroinitializer, ptr @.str.13, i64 16, ptr null }, align 8

; Function Attrs: nounwind uwtable
define internal ptr @H5D__earray_crt_dbg_context(ptr noundef %0, i64 noundef %1) #0 {
  %3 = alloca ptr, align 8
  %4 = alloca i64, align 8
  %5 = alloca ptr, align 8
  %6 = alloca %struct.H5O_loc_t, align 8
  %7 = alloca i8, align 1
  %8 = alloca %struct.H5O_layout_t, align 8
  %9 = alloca ptr, align 8
  %10 = alloca i8, align 1
  store ptr %0, ptr %3, align 8, !tbaa !116
  store i64 %1, ptr %4, align 8, !tbaa !10
  call void @llvm.lifetime.start.p0(i64 8, ptr %5) #8
  store ptr null, ptr %5, align 8, !tbaa !105
  call void @llvm.lifetime.start.p0(i64 24, ptr %6) #8
  call void @llvm.lifetime.start.p0(i64 1, ptr %7) #8
  store i8 0, ptr %7, align 1, !tbaa !14
  call void @llvm.lifetime.start.p0(i64 2256, ptr %8) #8
  call void @llvm.lifetime.start.p0(i64 8, ptr %9) #8
  store ptr null, ptr %9, align 8, !tbaa !80
  call void @llvm.lifetime.start.p0(i64 1, ptr %10) #8
  store i8 0, ptr %10, align 1, !tbaa !14
  %11 = load i8, ptr @H5D_init_g, align 1, !tbaa !14, !range !16, !noundef !17
  %12 = trunc i8 %11 to i1
  br i1 %12, label %17, label %13

13:                                               ; preds = %2
  %14 = load i8, ptr @H5_libterm_g, align 1, !tbaa !14, !range !16, !noundef !17
  %15 = trunc i8 %14 to i1
  %16 = xor i1 %15, true
  br label %17

17:                                               ; preds = %13, %2
  %18 = phi i1 [ true, %2 ], [ %16, %13 ]
  %19 = xor i1 %18, true
  %20 = xor i1 %19, true
  %21 = zext i1 %20 to i32
  %22 = sext i32 %21 to i64
  %23 = call i64 @llvm.expect.i64(i64 %22, i64 1)
  %24 = icmp ne i64 %23, 0
  br i1 %24, label %25, label %162

25:                                               ; preds = %17
  %26 = call noalias ptr @H5FL_reg_malloc(ptr noundef @H5_H5D_earray_ctx_ud_t_reg_free_list)
  store ptr %26, ptr %5, align 8, !tbaa !105
  %27 = icmp eq ptr null, %26
  br i1 %27, label %28, label %47

28:                                               ; preds = %25
  br label %29

29:                                               ; preds = %28
  br label %30

30:                                               ; preds = %29
  br label %31

31:                                               ; preds = %30
  %32 = load i64, ptr @H5E_DATASET_g, align 8, !tbaa !10
  %33 = load i64, ptr @H5E_CANTALLOC_g, align 8, !tbaa !10
  %34 = call i32 (ptr, ptr, i32, i64, i64, ptr, ...) @H5E_printf_stack(ptr noundef @.str.2, ptr noundef @__func__.H5D__earray_crt_dbg_context, i32 noundef 587, i64 noundef %32, i64 noundef %33, ptr noundef @.str.3)
  br label %35

35:                                               ; preds = %31
  br label %36

36:                                               ; preds = %35
  store i8 1, ptr %10, align 1, !tbaa !14
  %37 = load i8, ptr %10, align 1, !tbaa !14, !range !16, !noundef !17
  %38 = trunc i8 %37 to i1
  %39 = zext i1 %38 to i8
  store i8 %39, ptr %10, align 1, !tbaa !14
  br label %40

40:                                               ; preds = %36
  br label %41

41:                                               ; preds = %40
  br label %42

42:                                               ; preds = %41
  store ptr null, ptr %9, align 8, !tbaa !80
  br label %128

43:                                               ; No predecessors!
  br label %44

44:                                               ; preds = %43
  br label %45

45:                                               ; preds = %44
  br label %46

46:                                               ; preds = %45
  br label %47

47:                                               ; preds = %46, %25
  %48 = call i32 @H5O_loc_reset(ptr noundef %6)
  %49 = load ptr, ptr %3, align 8, !tbaa !116
  %50 = getelementptr inbounds nuw %struct.H5O_loc_t, ptr %6, i32 0, i32 0
  store ptr %49, ptr %50, align 8, !tbaa !117
  %51 = load i64, ptr %4, align 8, !tbaa !10
  %52 = getelementptr inbounds nuw %struct.H5O_loc_t, ptr %6, i32 0, i32 1
  store i64 %51, ptr %52, align 8, !tbaa !119
  %53 = call i32 @H5O_open(ptr noundef %6)
  %54 = icmp slt i32 %53, 0
  br i1 %54, label %55, label %74

55:                                               ; preds = %47
  br label %56

56:                                               ; preds = %55
  br label %57

57:                                               ; preds = %56
  br label %58

58:                                               ; preds = %57
  %59 = load i64, ptr @H5E_DATASET_g, align 8, !tbaa !10
  %60 = load i64, ptr @H5E_CANTOPENOBJ_g, align 8, !tbaa !10
  %61 = call i32 (ptr, ptr, i32, i64, i64, ptr, ...) @H5E_printf_stack(ptr noundef @.str.2, ptr noundef @__func__.H5D__earray_crt_dbg_context, i32 noundef 596, i64 noundef %59, i64 noundef %60, ptr noundef @.str.10)
  br label %62

62:                                               ; preds = %58
  br label %63

63:                                               ; preds = %62
  store i8 1, ptr %10, align 1, !tbaa !14
  %64 = load i8, ptr %10, align 1, !tbaa !14, !range !16, !noundef !17
  %65 = trunc i8 %64 to i1
  %66 = zext i1 %65 to i8
  store i8 %66, ptr %10, align 1, !tbaa !14
  br label %67

67:                                               ; preds = %63
  br label %68

68:                                               ; preds = %67
  br label %69

69:                                               ; preds = %68
  store ptr null, ptr %9, align 8, !tbaa !80
  br label %128

70:                                               ; No predecessors!
  br label %71

71:                                               ; preds = %70
  br label %72

72:                                               ; preds = %71
  br label %73

73:                                               ; preds = %72
  br label %74

74:                                               ; preds = %73, %47
  store i8 1, ptr %7, align 1, !tbaa !14
  %75 = call ptr @H5O_msg_read(ptr noundef %6, i32 noundef 8, ptr noundef %8)
  %76 = icmp eq ptr null, %75
  br i1 %76, label %77, label %96

77:                                               ; preds = %74
  br label %78

78:                                               ; preds = %77
  br label %79

79:                                               ; preds = %78
  br label %80

80:                                               ; preds = %79
  %81 = load i64, ptr @H5E_DATASET_g, align 8, !tbaa !10
  %82 = load i64, ptr @H5E_CANTGET_g, align 8, !tbaa !10
  %83 = call i32 (ptr, ptr, i32, i64, i64, ptr, ...) @H5E_printf_stack(ptr noundef @.str.2, ptr noundef @__func__.H5D__earray_crt_dbg_context, i32 noundef 601, i64 noundef %81, i64 noundef %82, ptr noundef @.str.11)
  br label %84

84:                                               ; preds = %80
  br label %85

85:                                               ; preds = %84
  store i8 1, ptr %10, align 1, !tbaa !14
  %86 = load i8, ptr %10, align 1, !tbaa !14, !range !16, !noundef !17
  %87 = trunc i8 %86 to i1
  %88 = zext i1 %87 to i8
  store i8 %88, ptr %10, align 1, !tbaa !14
  br label %89

89:                                               ; preds = %85
  br label %90

90:                                               ; preds = %89
  br label %91

91:                                               ; preds = %90
  store ptr null, ptr %9, align 8, !tbaa !80
  br label %128

92:                                               ; No predecessors!
  br label %93

93:                                               ; preds = %92
  br label %94

94:                                               ; preds = %93
  br label %95

95:                                               ; preds = %94
  br label %96

96:                                               ; preds = %95, %74
  %97 = call i32 @H5O_close(ptr noundef %6, ptr noundef null)
  %98 = icmp slt i32 %97, 0
  br i1 %98, label %99, label %118

99:                                               ; preds = %96
  br label %100

100:                                              ; preds = %99
  br label %101

101:                                              ; preds = %100
  br label %102

102:                                              ; preds = %101
  %103 = load i64, ptr @H5E_DATASET_g, align 8, !tbaa !10
  %104 = load i64, ptr @H5E_CANTCLOSEOBJ_g, align 8, !tbaa !10
  %105 = call i32 (ptr, ptr, i32, i64, i64, ptr, ...) @H5E_printf_stack(ptr noundef @.str.2, ptr noundef @__func__.H5D__earray_crt_dbg_context, i32 noundef 605, i64 noundef %103, i64 noundef %104, ptr noundef @.str.12)
  br label %106

106:                                              ; preds = %102
  br label %107

107:                                              ; preds = %106
  store i8 1, ptr %10, align 1, !tbaa !14
  %108 = load i8, ptr %10, align 1, !tbaa !14, !range !16, !noundef !17
  %109 = trunc i8 %108 to i1
  %110 = zext i1 %109 to i8
  store i8 %110, ptr %10, align 1, !tbaa !14
  br label %111

111:                                              ; preds = %107
  br label %112

112:                                              ; preds = %111
  br label %113

113:                                              ; preds = %112
  store ptr null, ptr %9, align 8, !tbaa !80
  br label %128

114:                                              ; No predecessors!
  br label %115

115:                                              ; preds = %114
  br label %116

116:                                              ; preds = %115
  br label %117

117:                                              ; preds = %116
  br label %118

118:                                              ; preds = %117, %96
  %119 = load ptr, ptr %3, align 8, !tbaa !116
  %120 = load ptr, ptr %5, align 8, !tbaa !105
  %121 = getelementptr inbounds nuw %struct.H5D_earray_ctx_ud_t, ptr %120, i32 0, i32 0
  store ptr %119, ptr %121, align 8, !tbaa !45
  %122 = getelementptr inbounds nuw %struct.H5O_layout_t, ptr %8, i32 0, i32 3
  %123 = getelementptr inbounds nuw %struct.H5O_layout_chunk_t, ptr %122, i32 0, i32 5
  %124 = load i32, ptr %123, align 4, !tbaa !26
  %125 = load ptr, ptr %5, align 8, !tbaa !105
  %126 = getelementptr inbounds nuw %struct.H5D_earray_ctx_ud_t, ptr %125, i32 0, i32 1
  store i32 %124, ptr %126, align 8, !tbaa !47
  %127 = load ptr, ptr %5, align 8, !tbaa !105
  store ptr %127, ptr %9, align 8, !tbaa !80
  br label %128

128:                                              ; preds = %118, %113, %91, %69, %42
  %129 = load ptr, ptr %9, align 8, !tbaa !80
  %130 = icmp eq ptr %129, null
  br i1 %130, label %131, label %161

131:                                              ; preds = %128
  %132 = load ptr, ptr %5, align 8, !tbaa !105
  %133 = icmp ne ptr %132, null
  br i1 %133, label %134, label %137

134:                                              ; preds = %131
  %135 = load ptr, ptr %5, align 8, !tbaa !105
  %136 = call ptr @H5FL_reg_free(ptr noundef @H5_H5D_earray_ctx_ud_t_reg_free_list, ptr noundef %135)
  store ptr %136, ptr %5, align 8, !tbaa !105
  br label %137

137:                                              ; preds = %134, %131
  %138 = load i8, ptr %7, align 1, !tbaa !14, !range !16, !noundef !17
  %139 = trunc i8 %138 to i1
  br i1 %139, label %140, label %160

140:                                              ; preds = %137
  %141 = call i32 @H5O_close(ptr noundef %6, ptr noundef null)
  %142 = icmp slt i32 %141, 0
  br i1 %142, label %143, label %159

143:                                              ; preds = %140
  br label %144

144:                                              ; preds = %143
  br label %145

145:                                              ; preds = %144
  br label %146

146:                                              ; preds = %145
  %147 = load i64, ptr @H5E_DATASET_g, align 8, !tbaa !10
  %148 = load i64, ptr @H5E_CANTCLOSEOBJ_g, align 8, !tbaa !10
  %149 = call i32 (ptr, ptr, i32, i64, i64, ptr, ...) @H5E_printf_stack(ptr noundef @.str.2, ptr noundef @__func__.H5D__earray_crt_dbg_context, i32 noundef 624, i64 noundef %147, i64 noundef %148, ptr noundef @.str.12)
  br label %150

150:                                              ; preds = %146
  br label %151

151:                                              ; preds = %150
  store i8 1, ptr %10, align 1, !tbaa !14
  %152 = load i8, ptr %10, align 1, !tbaa !14, !range !16, !noundef !17
  %153 = trunc i8 %152 to i1
  %154 = zext i1 %153 to i8
  store i8 %154, ptr %10, align 1, !tbaa !14
  br label %155

155:                                              ; preds = %151
  br label %156

156:                                              ; preds = %155
  store ptr null, ptr %9, align 8, !tbaa !80
  br label %157

157:                                              ; preds = %156
  br label %158

158:                                              ; preds = %157
  br label %159

159:                                              ; preds = %158, %140
  br label %160

160:                                              ; preds = %159, %137
  br label %161

161:                                              ; preds = %160, %128
  br label %162

162:                                              ; preds = %161, %17
  %163 = load ptr, ptr %9, align 8, !tbaa !80
  call void @llvm.lifetime.end.p0(i64 1, ptr %10) #8
  call void @llvm.lifetime.end.p0(i64 8, ptr %9) #8
  call void @llvm.lifetime.end.p0(i64 2256, ptr %8) #8
  call void @llvm.lifetime.end.p0(i64 1, ptr %7) #8
  call void @llvm.lifetime.end.p0(i64 24, ptr %6) #8
  call void @llvm.lifetime.end.p0(i64 8, ptr %5) #8
  ret ptr %163
}