; Function Attrs: nounwind uwtable
define internal ptr @H5D__earray_crt_dbg_context(ptr noundef %0, i64 noundef %1) #0 {
  %3 = alloca %struct.H5O_loc_t, align 8
  %4 = alloca %struct.H5O_layout_t, align 8
  call void @llvm.lifetime.start.p0(i64 24, ptr nonnull %3) #11
  call void @llvm.lifetime.start.p0(i64 2256, ptr nonnull %4) #11
  %5 = load i8, ptr @H5D_init_g, align 1, !tbaa !3, !range !7, !noundef !8
  %6 = trunc nuw i8 %5 to i1
  %7 = load i8, ptr @H5_libterm_g, align 1, !range !7
  %8 = trunc nuw i8 %7 to i1
  %9 = xor i1 %8, true
  %10 = select i1 %6, i1 true, i1 %9
  br i1 %10, label %11, label %53, !prof !9

11:                                               ; preds = %2
  %12 = tail call noalias ptr @H5FL_reg_malloc(ptr noundef nonnull @H5_H5D_earray_ctx_ud_t_reg_free_list) #11
  %13 = icmp eq ptr %12, null
  br i1 %13, label %.thread26, label %14

14:                                               ; preds = %11
  %15 = call i32 @H5O_loc_reset(ptr noundef nonnull %3) #11
  store ptr %0, ptr %3, align 8, !tbaa !92
  %16 = getelementptr inbounds nuw i8, ptr %3, i64 8
  store i64 %1, ptr %16, align 8, !tbaa !94
  %17 = call i32 @H5O_open(ptr noundef nonnull %3) #11
  %18 = icmp slt i32 %17, 0
  br i1 %18, label %40, label %19

19:                                               ; preds = %14
  %20 = call ptr @H5O_msg_read(ptr noundef nonnull %3, i32 noundef 8, ptr noundef nonnull %4) #11
  %21 = icmp eq ptr %20, null
  br i1 %21, label %22, label %26

22:                                               ; preds = %19
  %23 = load i64, ptr @H5E_DATASET_g, align 8, !tbaa !10
  %24 = load i64, ptr @H5E_CANTGET_g, align 8, !tbaa !10
  %25 = call i32 (ptr, ptr, i32, i64, i64, ptr, ...) @H5E_printf_stack(ptr noundef nonnull @.str.2, ptr noundef nonnull @__func__.H5D__earray_crt_dbg_context, i32 noundef 601, i64 noundef %23, i64 noundef %24, ptr noundef nonnull @.str.11) #11
  br label %45

26:                                               ; preds = %19
  %27 = call i32 @H5O_close(ptr noundef nonnull %3, ptr noundef null) #11
  %28 = icmp slt i32 %27, 0
  br i1 %28, label %29, label %33

29:                                               ; preds = %26
  %30 = load i64, ptr @H5E_DATASET_g, align 8, !tbaa !10
  %31 = load i64, ptr @H5E_CANTCLOSEOBJ_g, align 8, !tbaa !10
  %32 = call i32 (ptr, ptr, i32, i64, i64, ptr, ...) @H5E_printf_stack(ptr noundef nonnull @.str.2, ptr noundef nonnull @__func__.H5D__earray_crt_dbg_context, i32 noundef 605, i64 noundef %30, i64 noundef %31, ptr noundef nonnull @.str.12) #11
  br label %45

33:                                               ; preds = %26
  store ptr %0, ptr %12, align 8, !tbaa !41
  %34 = getelementptr inbounds nuw i8, ptr %4, i64 164
  %35 = load i32, ptr %34, align 4, !tbaa !21
  %36 = getelementptr inbounds nuw i8, ptr %12, i64 8
  store i32 %35, ptr %36, align 8, !tbaa !43
  br label %53

.thread26:                                        ; preds = %11
  %37 = load i64, ptr @H5E_DATASET_g, align 8, !tbaa !10
  %38 = load i64, ptr @H5E_CANTALLOC_g, align 8, !tbaa !10
  %39 = tail call i32 (ptr, ptr, i32, i64, i64, ptr, ...) @H5E_printf_stack(ptr noundef nonnull @.str.2, ptr noundef nonnull @__func__.H5D__earray_crt_dbg_context, i32 noundef 587, i64 noundef %37, i64 noundef %38, ptr noundef nonnull @.str.3) #11
  br label %53

40:                                               ; preds = %14
  %41 = load i64, ptr @H5E_DATASET_g, align 8, !tbaa !10
  %42 = load i64, ptr @H5E_CANTOPENOBJ_g, align 8, !tbaa !10
  %43 = call i32 (ptr, ptr, i32, i64, i64, ptr, ...) @H5E_printf_stack(ptr noundef nonnull @.str.2, ptr noundef nonnull @__func__.H5D__earray_crt_dbg_context, i32 noundef 596, i64 noundef %41, i64 noundef %42, ptr noundef nonnull @.str.10) #11
  %44 = call ptr @H5FL_reg_free(ptr noundef nonnull @H5_H5D_earray_ctx_ud_t_reg_free_list, ptr noundef nonnull %12) #11
  br label %53

45:                                               ; preds = %22, %29
  %46 = call ptr @H5FL_reg_free(ptr noundef nonnull @H5_H5D_earray_ctx_ud_t_reg_free_list, ptr noundef nonnull %12) #11
  %47 = call i32 @H5O_close(ptr noundef nonnull %3, ptr noundef null) #11
  %48 = icmp slt i32 %47, 0
  br i1 %48, label %49, label %53

49:                                               ; preds = %45
  %50 = load i64, ptr @H5E_DATASET_g, align 8, !tbaa !10
  %51 = load i64, ptr @H5E_CANTCLOSEOBJ_g, align 8, !tbaa !10
  %52 = call i32 (ptr, ptr, i32, i64, i64, ptr, ...) @H5E_printf_stack(ptr noundef nonnull @.str.2, ptr noundef nonnull @__func__.H5D__earray_crt_dbg_context, i32 noundef 624, i64 noundef %50, i64 noundef %51, ptr noundef nonnull @.str.12) #11
  br label %53

53:                                               ; preds = %40, %.thread26, %33, %45, %49, %2
  %.0 = phi ptr [ null, %49 ], [ null, %45 ], [ null, %40 ], [ %12, %33 ], [ null, %2 ], [ null, %.thread26 ]
  call void @llvm.lifetime.end.p0(i64 2256, ptr nonnull %4) #11
  call void @llvm.lifetime.end.p0(i64 24, ptr nonnull %3) #11
  ret ptr %.0
}